(dp1
S'failed'
p2
(lp3
S'9'
asS'source_names'
p4
(lp5
S'unresyst.tests.test_build'
p6
aS'9'
asS'ids'
p7
(dp8
I1
(S'/home/pcv/diplomka2/svn/trunk/code/adapter/unresyst/tests/test_build.py'
S'unresyst.tests.test_build'
p9
S'TestAbstractor.test_create_predicted_relationship_definition'
tp10
sI2
(S'/home/pcv/diplomka2/svn/trunk/code/adapter/unresyst/tests/test_build.py'
g9
S'TestAbstractor.test_create_predicted_relationship_instances'
tp11
sI3
(S'/home/pcv/diplomka2/svn/trunk/code/adapter/unresyst/tests/test_build.py'
g9
S'TestAbstractor.test_create_relationship_definitions'
tp12
sI4
(S'/home/pcv/diplomka2/svn/trunk/code/adapter/unresyst/tests/test_build.py'
g9
S'TestAbstractor.test_create_relationship_instances'
tp13
sI5
(S'/home/pcv/diplomka2/svn/trunk/code/adapter/unresyst/tests/test_build.py'
g9
S'TestAbstractor.test_create_rule_definitions'
tp14
sI6
(S'/home/pcv/diplomka2/svn/trunk/code/adapter/unresyst/tests/test_build.py'
g9
S'TestAbstractor.test_create_rule_instances'
tp15
sI7
(S'/home/pcv/diplomka2/svn/trunk/code/adapter/unresyst/tests/test_build.py'
g9
S'TestAbstractor.test_create_subjectobjects'
tp16
sI8
(S'/home/pcv/diplomka2/svn/trunk/code/adapter/unresyst/tests/test_build.py'
g9
S'TestAggregator.test_aggregates_created'
tp17
ss.